(dp0
S'tearRate'
p1
(dp2
S'reduced'
p3
S'no lenses'
p4
sS'normal'
p5
(dp6
S'astigmatic'
p7
(dp8
S'yes'
p9
(dp10
S'prescript'
p11
(dp12
S'hyper'
p13
(dp14
S'age'
p15
(dp16
S'pre'
p17
g4
sS'presby'
p18
g4
sS'young'
p19
S'hard'
p20
sssS'myope'
p21
g20
sssS'no'
p22
(dp23
g15
(dp24
g17
S'soft'
p25
sg18
(dp26
g11
(dp27
g13
g25
sg21
g4
sssg19
g25
ssssss.